target datalayout = "e-m:e-p270:32:32-p271:32:32-p272:64:64-i64:64-i128:128-f80:128-n8:16:32:64-S128"
target triple = "x86_64-pc-linux-gnu"

%"class.pkpy::unique_ptr_128" = type { ptr }
%"struct.pkpy::Expr.base" = type <{ ptr, i32 }>
%"struct.pkpy::BinaryExpr" = type { %"struct.pkpy::Expr.base", i8, %"class.pkpy::unique_ptr_128", %"class.pkpy::unique_ptr_128" }

; Function Attrs: mustprogress nounwind uwtable
define noundef zeroext i1 @_ZNK4pkpy10BinaryExpr10is_compareEv(ptr noundef nonnull align 8 dereferenceable(32) %0) unnamed_addr #5 align 2 {
  %2 = alloca i1, align 1
  %3 = alloca ptr, align 8
  store ptr %0, ptr %3, align 8
  %4 = load ptr, ptr %3, align 8
  %5 = getelementptr inbounds %"struct.pkpy::BinaryExpr", ptr %4, i32 0, i32 1
  %6 = load i8, ptr %5, align 4
  %7 = zext i8 %6 to i32
  switch i32 %7, label %9 [
    i32 51, label %8
    i32 59, label %8
    i32 56, label %8
    i32 57, label %8
    i32 50, label %8
    i32 58, label %8
  ]

8:                                                ; preds = %1, %1, %1, %1, %1, %1
  store i1 true, ptr %2, align 1
  br label %10

9:                                                ; preds = %1
  store i1 false, ptr %2, align 1
  br label %10

10:                                               ; preds = %9, %8
  %11 = load i1, ptr %2, align 1
  ret i1 %11
}