; Function Attrs: mustprogress nofree norecurse nosync nounwind willreturn memory(argmem: read) uwtable
define noundef zeroext i1 @_ZNK4pkpy10BinaryExpr10is_compareEv(ptr noundef nonnull readonly align 8 captures(none) dereferenceable(32) %0) unnamed_addr #10 align 2 {
  %2 = getelementptr inbounds nuw i8, ptr %0, i64 12
  %3 = load i8, ptr %2, align 4
  %4 = icmp ult i8 %3, 60
  %switch.cast = zext nneg i8 %3 to i60
  %switch.downshift = lshr i60 -68679894317400064, %switch.cast
  %switch.masked = trunc i60 %switch.downshift to i1
  %.0 = select i1 %4, i1 %switch.masked, i1 false
  ret i1 %.0
}